; Function Attrs: mustprogress uwtable
define internal fastcc noundef zeroext i1 @_ZN4i18n12phonenumbers12_GLOBAL__N_132IsNationalNumberSuffixOfTheOtherERKNS0_11PhoneNumberES4_(i64 %.48.val, ptr nocapture noundef nonnull readonly align 8 dereferenceable(72) %0) unnamed_addr #4 personality ptr @__gxx_personality_v0 {
  %2 = alloca %"class.std::__cxx11::basic_string", align 8
  %3 = alloca %"class.std::__cxx11::basic_string", align 8
  call void @_ZN4i18n12phonenumbers10SimpleItoaB5cxx11Em(ptr dead_on_unwind nonnull writable sret(%"class.std::__cxx11::basic_string") align 8 %2, i64 noundef %.48.val)
  %4 = getelementptr inbounds i8, ptr %0, i64 48
  %5 = load i64, ptr %4, align 8
  invoke void @_ZN4i18n12phonenumbers10SimpleItoaB5cxx11Em(ptr dead_on_unwind nonnull writable sret(%"class.std::__cxx11::basic_string") align 8 %3, i64 noundef %5)
          to label %6 unwind label %13

6:                                                ; preds = %1
  %7 = invoke noundef zeroext i1 @_ZN4i18n12phonenumbers15HasSuffixStringERKNSt7__cxx1112basic_stringIcSt11char_traitsIcESaIcEEES8_(ptr noundef nonnull align 8 dereferenceable(32) %2, ptr noundef nonnull align 8 dereferenceable(32) %3)
          to label %8 unwind label %15

8:                                                ; preds = %6
  br i1 %7, label %11, label %9

9:                                                ; preds = %8
  %10 = invoke noundef zeroext i1 @_ZN4i18n12phonenumbers15HasSuffixStringERKNSt7__cxx1112basic_stringIcSt11char_traitsIcESaIcEEES8_(ptr noundef nonnull align 8 dereferenceable(32) %3, ptr noundef nonnull align 8 dereferenceable(32) %2)
          to label %11 unwind label %15

11:                                               ; preds = %9, %8
  %12 = phi i1 [ true, %8 ], [ %10, %9 ]
  call void @_ZNSt7__cxx1112basic_stringIcSt11char_traitsIcESaIcEED1Ev(ptr noundef nonnull align 8 dereferenceable(32) %3) #26
  call void @_ZNSt7__cxx1112basic_stringIcSt11char_traitsIcESaIcEED1Ev(ptr noundef nonnull align 8 dereferenceable(32) %2) #26
  ret i1 %12

13:                                               ; preds = %1
  %14 = landingpad { ptr, i32 }
          cleanup
  br label %17

15:                                               ; preds = %9, %6
  %16 = landingpad { ptr, i32 }
          cleanup
  call void @_ZNSt7__cxx1112basic_stringIcSt11char_traitsIcESaIcEED1Ev(ptr noundef nonnull align 8 dereferenceable(32) %3) #26
  br label %17

17:                                               ; preds = %15, %13
  %.pn = phi { ptr, i32 } [ %16, %15 ], [ %14, %13 ]
  call void @_ZNSt7__cxx1112basic_stringIcSt11char_traitsIcESaIcEED1Ev(ptr noundef nonnull align 8 dereferenceable(32) %2) #26
  resume { ptr, i32 } %.pn
}